(dp0
S'Sarah Schmid'
p1
ccopy_reg
_reconstructor
p2
(csportlerlist
SportlerList
p3
c__builtin__
list
p4
(lp5
S'2:58'
p6
aS'2.58'
p7
aS'2:39'
p8
aS'2-25'
p9
aS'2-55'
p10
aS'2:54'
p11
aS'2.18'
p12
aS'2:55'
p13
aS'2:55'
p14
aS'2:22'
p15
aS'2-21'
p16
aS'2.22'
p17
atp18
Rp19
(dp20
S'geb'
p21
S'2002-06-17'
p22
sS'name'
p23
g1
sbsS'Vera Vi'
p24
g2
(g3
g4
(lp25
S'2.49'
p26
aS'3.11'
p27
aS'3:11'
p28
aS'3:23'
p29
aS'3-01'
p30
aS'3-23'
p31
aS'3:01'
p32
aS'2.41'
p33
aS'2-41'
p34
aS'3.02'
p35
aS'3.01'
p36
aS'2:49'
p37
atp38
Rp39
(dp40
g21
S'2002-12-25'
p41
sg23
g24
sbsS'Sonja Seiler'
p42
g2
(g3
g4
(lp43
S'2-44'
p44
aS'3:01'
p45
aS'2.44'
p46
aS'2.55'
p47
aS'2.51'
p48
aS'2:41'
p49
aS'2:41'
p50
aS'3:00'
p51
aS'2-32'
p52
aS'2-31'
p53
aS'2.11'
p54
aS'2:26'
p55
atp56
Rp57
(dp58
g21
S'2002-11-24'
p59
sg23
g42
sbsS'Ron Reimer'
p60
g2
(g3
g4
(lp61
S'2-34'
p62
aS'3:21'
p63
aS'2.34'
p64
aS'2.45'
p65
aS'3.01'
p66
aS'2:01'
p67
aS'2:01'
p68
aS'3:10'
p69
aS'2-22'
p70
aS'2-01'
p71
aS'2.01'
p72
aS'2:16'
p73
atp74
Rp75
(dp76
g21
S'2002-03-14'
p77
sg23
g60
sbsS'Mark Meiler'
p78
g2
(g3
g4
(lp79
S'2:22'
p80
aS'3.01'
p81
aS'3:01'
p82
aS'3.02'
p83
aS'3:02'
p84
aS'3.02'
p85
aS'3:22'
p86
aS'2.49'
p87
aS'2:38'
p88
aS'2:40'
p89
aS'2.22'
p90
aS'2-31'
p91
atp92
Rp93
(dp94
g21
S'2002-02-24'
p95
sg23
g78
sbsS'Julie Joop'
p96
g2
(g3
g4
(lp97
S'2.59'
p98
aS'2.11'
p99
aS'2:11'
p100
aS'2:23'
p101
aS'3-10'
p102
aS'2-23'
p103
aS'3:10'
p104
aS'3.21'
p105
aS'3-21'
p106
aS'3.01'
p107
aS'3.02'
p108
aS'2:59'
p109
atp110
Rp111
(dp112
g21
S'2002-08-17'
p113
sg23
g96
sbs.